
ejercicio 2.elf:     file format elf32-avr

Sections:
Idx Name          Size      VMA       LMA       File off  Algn
  0 .data         00000000  00800100  00800100  000005c4  2**0
                  CONTENTS, ALLOC, LOAD, DATA
  1 .text         00000570  00000000  00000000  00000054  2**1
                  CONTENTS, ALLOC, LOAD, READONLY, CODE
  2 .comment      00000030  00000000  00000000  000005c4  2**0
                  CONTENTS, READONLY
  3 .note.gnu.avr.deviceinfo 00000040  00000000  00000000  000005f4  2**2
                  CONTENTS, READONLY
  4 .debug_aranges 00000100  00000000  00000000  00000634  2**0
                  CONTENTS, READONLY, DEBUGGING
  5 .debug_info   0000148c  00000000  00000000  00000734  2**0
                  CONTENTS, READONLY, DEBUGGING
  6 .debug_abbrev 0000097a  00000000  00000000  00001bc0  2**0
                  CONTENTS, READONLY, DEBUGGING
  7 .debug_line   00000af8  00000000  00000000  0000253a  2**0
                  CONTENTS, READONLY, DEBUGGING
  8 .debug_frame  000002c0  00000000  00000000  00003034  2**2
                  CONTENTS, READONLY, DEBUGGING
  9 .debug_str    00000591  00000000  00000000  000032f4  2**0
                  CONTENTS, READONLY, DEBUGGING
 10 .debug_loc    00001138  00000000  00000000  00003885  2**0
                  CONTENTS, READONLY, DEBUGGING
 11 .debug_ranges 000000e0  00000000  00000000  000049bd  2**0
                  CONTENTS, READONLY, DEBUGGING

Disassembly of section .text:

00000000 <__vectors>:
   0:	0c 94 cc 00 	jmp	0x198	; 0x198 <__ctors_end>
   4:	0c 94 de 00 	jmp	0x1bc	; 0x1bc <__bad_interrupt>
   8:	0c 94 de 00 	jmp	0x1bc	; 0x1bc <__bad_interrupt>
   c:	0c 94 de 00 	jmp	0x1bc	; 0x1bc <__bad_interrupt>
  10:	0c 94 de 00 	jmp	0x1bc	; 0x1bc <__bad_interrupt>
  14:	0c 94 de 00 	jmp	0x1bc	; 0x1bc <__bad_interrupt>
  18:	0c 94 de 00 	jmp	0x1bc	; 0x1bc <__bad_interrupt>
  1c:	0c 94 de 00 	jmp	0x1bc	; 0x1bc <__bad_interrupt>
  20:	0c 94 de 00 	jmp	0x1bc	; 0x1bc <__bad_interrupt>
  24:	0c 94 de 00 	jmp	0x1bc	; 0x1bc <__bad_interrupt>
  28:	0c 94 de 00 	jmp	0x1bc	; 0x1bc <__bad_interrupt>
  2c:	0c 94 de 00 	jmp	0x1bc	; 0x1bc <__bad_interrupt>
  30:	0c 94 de 00 	jmp	0x1bc	; 0x1bc <__bad_interrupt>
  34:	0c 94 de 00 	jmp	0x1bc	; 0x1bc <__bad_interrupt>
  38:	0c 94 de 00 	jmp	0x1bc	; 0x1bc <__bad_interrupt>
  3c:	0c 94 de 00 	jmp	0x1bc	; 0x1bc <__bad_interrupt>
  40:	0c 94 de 00 	jmp	0x1bc	; 0x1bc <__bad_interrupt>
  44:	0c 94 de 00 	jmp	0x1bc	; 0x1bc <__bad_interrupt>
  48:	0c 94 de 00 	jmp	0x1bc	; 0x1bc <__bad_interrupt>
  4c:	0c 94 de 00 	jmp	0x1bc	; 0x1bc <__bad_interrupt>
  50:	0c 94 de 00 	jmp	0x1bc	; 0x1bc <__bad_interrupt>
  54:	0c 94 de 00 	jmp	0x1bc	; 0x1bc <__bad_interrupt>
  58:	0c 94 de 00 	jmp	0x1bc	; 0x1bc <__bad_interrupt>
  5c:	0c 94 de 00 	jmp	0x1bc	; 0x1bc <__bad_interrupt>
  60:	0c 94 de 00 	jmp	0x1bc	; 0x1bc <__bad_interrupt>
  64:	0c 94 de 00 	jmp	0x1bc	; 0x1bc <__bad_interrupt>
  68:	36 02       	muls	r19, r22
  6a:	86 02       	muls	r24, r22
  6c:	86 02       	muls	r24, r22
  6e:	86 02       	muls	r24, r22
  70:	3b 02       	muls	r19, r27
  72:	86 02       	muls	r24, r22
  74:	40 02       	muls	r20, r16
  76:	45 02       	muls	r20, r21
  78:	86 02       	muls	r24, r22
  7a:	86 02       	muls	r24, r22
  7c:	86 02       	muls	r24, r22
  7e:	86 02       	muls	r24, r22
  80:	86 02       	muls	r24, r22
  82:	86 02       	muls	r24, r22
  84:	86 02       	muls	r24, r22
  86:	86 02       	muls	r24, r22
  88:	86 02       	muls	r24, r22
  8a:	86 02       	muls	r24, r22
  8c:	86 02       	muls	r24, r22
  8e:	86 02       	muls	r24, r22
  90:	86 02       	muls	r24, r22
  92:	86 02       	muls	r24, r22
  94:	86 02       	muls	r24, r22
  96:	86 02       	muls	r24, r22
  98:	86 02       	muls	r24, r22
  9a:	86 02       	muls	r24, r22
  9c:	86 02       	muls	r24, r22
  9e:	86 02       	muls	r24, r22
  a0:	86 02       	muls	r24, r22
  a2:	86 02       	muls	r24, r22
  a4:	86 02       	muls	r24, r22
  a6:	86 02       	muls	r24, r22
  a8:	86 02       	muls	r24, r22
  aa:	86 02       	muls	r24, r22
  ac:	86 02       	muls	r24, r22
  ae:	86 02       	muls	r24, r22
  b0:	86 02       	muls	r24, r22
  b2:	86 02       	muls	r24, r22
  b4:	86 02       	muls	r24, r22
  b6:	86 02       	muls	r24, r22
  b8:	86 02       	muls	r24, r22
  ba:	86 02       	muls	r24, r22
  bc:	86 02       	muls	r24, r22
  be:	86 02       	muls	r24, r22
  c0:	86 02       	muls	r24, r22
  c2:	86 02       	muls	r24, r22
  c4:	86 02       	muls	r24, r22
  c6:	86 02       	muls	r24, r22
  c8:	86 02       	muls	r24, r22
  ca:	86 02       	muls	r24, r22
  cc:	86 02       	muls	r24, r22
  ce:	86 02       	muls	r24, r22
  d0:	86 02       	muls	r24, r22
  d2:	86 02       	muls	r24, r22
  d4:	86 02       	muls	r24, r22
  d6:	86 02       	muls	r24, r22
  d8:	86 02       	muls	r24, r22
  da:	86 02       	muls	r24, r22
  dc:	86 02       	muls	r24, r22
  de:	86 02       	muls	r24, r22
  e0:	86 02       	muls	r24, r22
  e2:	86 02       	muls	r24, r22
  e4:	86 02       	muls	r24, r22
  e6:	86 02       	muls	r24, r22
  e8:	4a 02       	muls	r20, r26
  ea:	86 02       	muls	r24, r22
  ec:	86 02       	muls	r24, r22
  ee:	86 02       	muls	r24, r22
  f0:	4f 02       	muls	r20, r31
  f2:	86 02       	muls	r24, r22
  f4:	54 02       	muls	r21, r20
  f6:	59 02       	muls	r21, r25
  f8:	86 02       	muls	r24, r22
  fa:	86 02       	muls	r24, r22
  fc:	86 02       	muls	r24, r22
  fe:	86 02       	muls	r24, r22
 100:	86 02       	muls	r24, r22
 102:	86 02       	muls	r24, r22
 104:	86 02       	muls	r24, r22
 106:	86 02       	muls	r24, r22
 108:	86 02       	muls	r24, r22
 10a:	86 02       	muls	r24, r22
 10c:	86 02       	muls	r24, r22
 10e:	86 02       	muls	r24, r22
 110:	86 02       	muls	r24, r22
 112:	86 02       	muls	r24, r22
 114:	86 02       	muls	r24, r22
 116:	86 02       	muls	r24, r22
 118:	86 02       	muls	r24, r22
 11a:	86 02       	muls	r24, r22
 11c:	86 02       	muls	r24, r22
 11e:	86 02       	muls	r24, r22
 120:	86 02       	muls	r24, r22
 122:	86 02       	muls	r24, r22
 124:	86 02       	muls	r24, r22
 126:	86 02       	muls	r24, r22
 128:	5e 02       	muls	r21, r30
 12a:	86 02       	muls	r24, r22
 12c:	86 02       	muls	r24, r22
 12e:	86 02       	muls	r24, r22
 130:	63 02       	muls	r22, r19
 132:	86 02       	muls	r24, r22
 134:	68 02       	muls	r22, r24
 136:	6d 02       	muls	r22, r29
 138:	86 02       	muls	r24, r22
 13a:	86 02       	muls	r24, r22
 13c:	86 02       	muls	r24, r22
 13e:	86 02       	muls	r24, r22
 140:	86 02       	muls	r24, r22
 142:	86 02       	muls	r24, r22
 144:	86 02       	muls	r24, r22
 146:	86 02       	muls	r24, r22
 148:	72 02       	muls	r23, r18
 14a:	86 02       	muls	r24, r22
 14c:	86 02       	muls	r24, r22
 14e:	86 02       	muls	r24, r22
 150:	77 02       	muls	r23, r23
 152:	86 02       	muls	r24, r22
 154:	7c 02       	muls	r23, r28
 156:	81 02       	muls	r24, r17

00000158 <LcdCustomChar>:
 158:	00 1f 00 00 00 00 1f 00 00 1f 10 10 10 10 1f 00     ................
 168:	00 1f 18 18 18 18 1f 00 00 1f 1c 1c 1c 1c 1f 00     ................
 178:	00 1f 1e 1e 1e 1e 1f 00 00 1f 1f 1f 1f 1f 1f 00     ................
 188:	03 07 0f 1f 0f 07 03 00 18 1c 1e 1f 1e 1c 18 00     ................

00000198 <__ctors_end>:
 198:	11 24       	eor	r1, r1
 19a:	1f be       	out	0x3f, r1	; 63
 19c:	cf ef       	ldi	r28, 0xFF	; 255
 19e:	d8 e0       	ldi	r29, 0x08	; 8
 1a0:	de bf       	out	0x3e, r29	; 62
 1a2:	cd bf       	out	0x3d, r28	; 61

000001a4 <__do_clear_bss>:
 1a4:	21 e0       	ldi	r18, 0x01	; 1
 1a6:	a0 e0       	ldi	r26, 0x00	; 0
 1a8:	b1 e0       	ldi	r27, 0x01	; 1
 1aa:	01 c0       	rjmp	.+2      	; 0x1ae <.do_clear_bss_start>

000001ac <.do_clear_bss_loop>:
 1ac:	1d 92       	st	X+, r1

000001ae <.do_clear_bss_start>:
 1ae:	a0 30       	cpi	r26, 0x00	; 0
 1b0:	b2 07       	cpc	r27, r18
 1b2:	e1 f7       	brne	.-8      	; 0x1ac <.do_clear_bss_loop>
 1b4:	0e 94 91 02 	call	0x522	; 0x522 <main>
 1b8:	0c 94 b6 02 	jmp	0x56c	; 0x56c <_exit>

000001bc <__bad_interrupt>:
 1bc:	0c 94 00 00 	jmp	0	; 0x0 <__vectors>

000001c0 <LCDsendChar>:
	LCDGotoXY(x,y);
	for(i=0;(uint8_t)pgm_read_byte(&FlashLoc[i]);i++)
	{
		LCDsendChar((uint8_t)pgm_read_byte(&FlashLoc[i]));
	}
}
 1c0:	98 2f       	mov	r25, r24
 1c2:	90 7f       	andi	r25, 0xF0	; 240
 1c4:	95 b9       	out	0x05, r25	; 5
 1c6:	95 b1       	in	r25, 0x05	; 5
 1c8:	91 60       	ori	r25, 0x01	; 1
 1ca:	95 b9       	out	0x05, r25	; 5
 1cc:	95 b1       	in	r25, 0x05	; 5
 1ce:	94 60       	ori	r25, 0x04	; 4
 1d0:	95 b9       	out	0x05, r25	; 5
 1d2:	2a e6       	ldi	r18, 0x6A	; 106
 1d4:	2a 95       	dec	r18
 1d6:	f1 f7       	brne	.-4      	; 0x1d4 <LCDsendChar+0x14>
 1d8:	00 c0       	rjmp	.+0      	; 0x1da <LCDsendChar+0x1a>
 1da:	95 b1       	in	r25, 0x05	; 5
 1dc:	9b 7f       	andi	r25, 0xFB	; 251
 1de:	95 b9       	out	0x05, r25	; 5
 1e0:	95 b1       	in	r25, 0x05	; 5
 1e2:	9e 7f       	andi	r25, 0xFE	; 254
 1e4:	95 b9       	out	0x05, r25	; 5
 1e6:	9a e6       	ldi	r25, 0x6A	; 106
 1e8:	9a 95       	dec	r25
 1ea:	f1 f7       	brne	.-4      	; 0x1e8 <LCDsendChar+0x28>
 1ec:	00 c0       	rjmp	.+0      	; 0x1ee <LCDsendChar+0x2e>
 1ee:	20 e1       	ldi	r18, 0x10	; 16
 1f0:	82 9f       	mul	r24, r18
 1f2:	c0 01       	movw	r24, r0
 1f4:	11 24       	eor	r1, r1
 1f6:	85 b9       	out	0x05, r24	; 5
 1f8:	85 b1       	in	r24, 0x05	; 5
 1fa:	81 60       	ori	r24, 0x01	; 1
 1fc:	85 b9       	out	0x05, r24	; 5
 1fe:	85 b1       	in	r24, 0x05	; 5
 200:	84 60       	ori	r24, 0x04	; 4
 202:	85 b9       	out	0x05, r24	; 5
 204:	8a e6       	ldi	r24, 0x6A	; 106
 206:	8a 95       	dec	r24
 208:	f1 f7       	brne	.-4      	; 0x206 <LCDsendChar+0x46>
 20a:	00 c0       	rjmp	.+0      	; 0x20c <LCDsendChar+0x4c>
 20c:	85 b1       	in	r24, 0x05	; 5
 20e:	8b 7f       	andi	r24, 0xFB	; 251
 210:	85 b9       	out	0x05, r24	; 5
 212:	85 b1       	in	r24, 0x05	; 5
 214:	8e 7f       	andi	r24, 0xFE	; 254
 216:	85 b9       	out	0x05, r24	; 5
 218:	9a e6       	ldi	r25, 0x6A	; 106
 21a:	9a 95       	dec	r25
 21c:	f1 f7       	brne	.-4      	; 0x21a <LCDsendChar+0x5a>
 21e:	00 c0       	rjmp	.+0      	; 0x220 <LCDsendChar+0x60>
 220:	08 95       	ret

00000222 <LCDsendCommand>:
 222:	98 2f       	mov	r25, r24
 224:	90 7f       	andi	r25, 0xF0	; 240
 226:	95 b9       	out	0x05, r25	; 5
 228:	95 b1       	in	r25, 0x05	; 5
 22a:	94 60       	ori	r25, 0x04	; 4
 22c:	95 b9       	out	0x05, r25	; 5
 22e:	ef ec       	ldi	r30, 0xCF	; 207
 230:	f7 e0       	ldi	r31, 0x07	; 7
 232:	31 97       	sbiw	r30, 0x01	; 1
 234:	f1 f7       	brne	.-4      	; 0x232 <LCDsendCommand+0x10>
 236:	00 c0       	rjmp	.+0      	; 0x238 <LCDsendCommand+0x16>
 238:	00 00       	nop
 23a:	95 b1       	in	r25, 0x05	; 5
 23c:	9b 7f       	andi	r25, 0xFB	; 251
 23e:	95 b9       	out	0x05, r25	; 5
 240:	ef ec       	ldi	r30, 0xCF	; 207
 242:	f7 e0       	ldi	r31, 0x07	; 7
 244:	31 97       	sbiw	r30, 0x01	; 1
 246:	f1 f7       	brne	.-4      	; 0x244 <LCDsendCommand+0x22>
 248:	00 c0       	rjmp	.+0      	; 0x24a <LCDsendCommand+0x28>
 24a:	00 00       	nop
 24c:	f0 e1       	ldi	r31, 0x10	; 16
 24e:	8f 9f       	mul	r24, r31
 250:	c0 01       	movw	r24, r0
 252:	11 24       	eor	r1, r1
 254:	85 b9       	out	0x05, r24	; 5
 256:	85 b1       	in	r24, 0x05	; 5
 258:	84 60       	ori	r24, 0x04	; 4
 25a:	85 b9       	out	0x05, r24	; 5
 25c:	8f ec       	ldi	r24, 0xCF	; 207
 25e:	97 e0       	ldi	r25, 0x07	; 7
 260:	01 97       	sbiw	r24, 0x01	; 1
 262:	f1 f7       	brne	.-4      	; 0x260 <LCDsendCommand+0x3e>
 264:	00 c0       	rjmp	.+0      	; 0x266 <LCDsendCommand+0x44>
 266:	00 00       	nop
 268:	85 b1       	in	r24, 0x05	; 5
 26a:	8b 7f       	andi	r24, 0xFB	; 251
 26c:	85 b9       	out	0x05, r24	; 5
 26e:	ef ec       	ldi	r30, 0xCF	; 207
 270:	f7 e0       	ldi	r31, 0x07	; 7
 272:	31 97       	sbiw	r30, 0x01	; 1
 274:	f1 f7       	brne	.-4      	; 0x272 <LCDsendCommand+0x50>
 276:	00 c0       	rjmp	.+0      	; 0x278 <LCDsendCommand+0x56>
 278:	00 00       	nop
 27a:	08 95       	ret

0000027c <LCDGotoXY>:
 27c:	62 30       	cpi	r22, 0x02	; 2
 27e:	31 f0       	breq	.+12     	; 0x28c <LCDGotoXY+0x10>
 280:	63 30       	cpi	r22, 0x03	; 3
 282:	31 f0       	breq	.+12     	; 0x290 <LCDGotoXY+0x14>
 284:	61 30       	cpi	r22, 0x01	; 1
 286:	29 f4       	brne	.+10     	; 0x292 <LCDGotoXY+0x16>
 288:	80 5c       	subi	r24, 0xC0	; 192
 28a:	03 c0       	rjmp	.+6      	; 0x292 <LCDGotoXY+0x16>
 28c:	8c 5e       	subi	r24, 0xEC	; 236
 28e:	01 c0       	rjmp	.+2      	; 0x292 <LCDGotoXY+0x16>
 290:	8c 5a       	subi	r24, 0xAC	; 172
 292:	80 68       	ori	r24, 0x80	; 128
 294:	0e 94 11 01 	call	0x222	; 0x222 <LCDsendCommand>
 298:	08 95       	ret

0000029a <LCDdefinechar>:
0b00000000,
0b00000000
};
LCDdefinechar(backslash,0);
*/
void LCDdefinechar(const uint8_t *pc,uint8_t char_code){
 29a:	ef 92       	push	r14
 29c:	ff 92       	push	r15
 29e:	0f 93       	push	r16
 2a0:	1f 93       	push	r17
 2a2:	cf 93       	push	r28
 2a4:	df 93       	push	r29
 2a6:	7c 01       	movw	r14, r24
	uint8_t a, pcc;
	uint16_t i;
	a=(char_code<<3)|0x40;
 2a8:	86 2f       	mov	r24, r22
 2aa:	90 e0       	ldi	r25, 0x00	; 0
 2ac:	88 0f       	add	r24, r24
 2ae:	99 1f       	adc	r25, r25
 2b0:	88 0f       	add	r24, r24
 2b2:	99 1f       	adc	r25, r25
 2b4:	88 0f       	add	r24, r24
 2b6:	99 1f       	adc	r25, r25
 2b8:	80 64       	ori	r24, 0x40	; 64
	for (i=0; i<8; i++){
 2ba:	c0 e0       	ldi	r28, 0x00	; 0
 2bc:	d0 e0       	ldi	r29, 0x00	; 0
 2be:	0d c0       	rjmp	.+26     	; 0x2da <LCDdefinechar+0x40>
		pcc=pgm_read_byte(&pc[i]);
 2c0:	f7 01       	movw	r30, r14
 2c2:	ec 0f       	add	r30, r28
 2c4:	fd 1f       	adc	r31, r29
 2c6:	14 91       	lpm	r17, Z
		LCDsendCommand(a++);
 2c8:	01 e0       	ldi	r16, 0x01	; 1
 2ca:	08 0f       	add	r16, r24
 2cc:	0e 94 11 01 	call	0x222	; 0x222 <LCDsendCommand>
		LCDsendChar(pcc);
 2d0:	81 2f       	mov	r24, r17
 2d2:	0e 94 e0 00 	call	0x1c0	; 0x1c0 <LCDsendChar>
*/
void LCDdefinechar(const uint8_t *pc,uint8_t char_code){
	uint8_t a, pcc;
	uint16_t i;
	a=(char_code<<3)|0x40;
	for (i=0; i<8; i++){
 2d6:	21 96       	adiw	r28, 0x01	; 1
		pcc=pgm_read_byte(&pc[i]);
		LCDsendCommand(a++);
 2d8:	80 2f       	mov	r24, r16
*/
void LCDdefinechar(const uint8_t *pc,uint8_t char_code){
	uint8_t a, pcc;
	uint16_t i;
	a=(char_code<<3)|0x40;
	for (i=0; i<8; i++){
 2da:	c8 30       	cpi	r28, 0x08	; 8
 2dc:	d1 05       	cpc	r29, r1
 2de:	80 f3       	brcs	.-32     	; 0x2c0 <LCDdefinechar+0x26>
		pcc=pgm_read_byte(&pc[i]);
		LCDsendCommand(a++);
		LCDsendChar(pcc);
		}
}
 2e0:	df 91       	pop	r29
 2e2:	cf 91       	pop	r28
 2e4:	1f 91       	pop	r17
 2e6:	0f 91       	pop	r16
 2e8:	ff 90       	pop	r15
 2ea:	ef 90       	pop	r14
 2ec:	08 95       	ret

000002ee <LCDinit>:
	LCP&=~(1<<LCD_E);
	_delay_ms(1);	
#endif
}
void LCDinit(void)//Initializes LCD
{
 2ee:	cf 93       	push	r28
 2f0:	df 93       	push	r29
	#else
		//round up by default
		__ticks_dc = (uint32_t)(ceil(fabs(__tmp)));
	#endif

	__builtin_avr_delay_cycles(__ticks_dc);
 2f2:	8f e2       	ldi	r24, 0x2F	; 47
 2f4:	95 e7       	ldi	r25, 0x75	; 117
 2f6:	01 97       	sbiw	r24, 0x01	; 1
 2f8:	f1 f7       	brne	.-4      	; 0x2f6 <LCDinit+0x8>
 2fa:	00 c0       	rjmp	.+0      	; 0x2fc <LCDinit+0xe>
 2fc:	00 00       	nop
#ifdef LCD_4bit	
	//4 bit part
	_delay_ms(15);
	LDP=0x00;
 2fe:	15 b8       	out	0x05, r1	; 5
	LCP=0x00;
 300:	15 b8       	out	0x05, r1	; 5
	LDDR|=1<<LCD_D7|1<<LCD_D6|1<<LCD_D5|1<<LCD_D4;
 302:	84 b1       	in	r24, 0x04	; 4
 304:	80 6f       	ori	r24, 0xF0	; 240
 306:	84 b9       	out	0x04, r24	; 4
	LCDR|=1<<LCD_E|1<<LCD_RW|1<<LCD_RS;
 308:	84 b1       	in	r24, 0x04	; 4
 30a:	87 60       	ori	r24, 0x07	; 7
 30c:	84 b9       	out	0x04, r24	; 4
   //---------one------
	LDP=0<<LCD_D7|0<<LCD_D6|1<<LCD_D5|1<<LCD_D4; //4 bit mode
 30e:	90 e3       	ldi	r25, 0x30	; 48
 310:	95 b9       	out	0x05, r25	; 5
	LCP|=1<<LCD_E|0<<LCD_RW|0<<LCD_RS;		
 312:	85 b1       	in	r24, 0x05	; 5
 314:	84 60       	ori	r24, 0x04	; 4
 316:	85 b9       	out	0x05, r24	; 5
 318:	ef ec       	ldi	r30, 0xCF	; 207
 31a:	f7 e0       	ldi	r31, 0x07	; 7
 31c:	31 97       	sbiw	r30, 0x01	; 1
 31e:	f1 f7       	brne	.-4      	; 0x31c <LCDinit+0x2e>
 320:	00 c0       	rjmp	.+0      	; 0x322 <LCDinit+0x34>
 322:	00 00       	nop
	_delay_ms(1);
	LCP&=~(1<<LCD_E);
 324:	85 b1       	in	r24, 0x05	; 5
 326:	8b 7f       	andi	r24, 0xFB	; 251
 328:	85 b9       	out	0x05, r24	; 5
 32a:	ef ec       	ldi	r30, 0xCF	; 207
 32c:	f7 e0       	ldi	r31, 0x07	; 7
 32e:	31 97       	sbiw	r30, 0x01	; 1
 330:	f1 f7       	brne	.-4      	; 0x32e <LCDinit+0x40>
 332:	00 c0       	rjmp	.+0      	; 0x334 <LCDinit+0x46>
 334:	00 00       	nop
	_delay_ms(1);
	//-----------two-----------
	LDP=0<<LCD_D7|0<<LCD_D6|1<<LCD_D5|1<<LCD_D4; //4 bit mode
 336:	95 b9       	out	0x05, r25	; 5
	LCP|=1<<LCD_E|0<<LCD_RW|0<<LCD_RS;		
 338:	85 b1       	in	r24, 0x05	; 5
 33a:	84 60       	ori	r24, 0x04	; 4
 33c:	85 b9       	out	0x05, r24	; 5
 33e:	8f ec       	ldi	r24, 0xCF	; 207
 340:	97 e0       	ldi	r25, 0x07	; 7
 342:	01 97       	sbiw	r24, 0x01	; 1
 344:	f1 f7       	brne	.-4      	; 0x342 <LCDinit+0x54>
 346:	00 c0       	rjmp	.+0      	; 0x348 <LCDinit+0x5a>
 348:	00 00       	nop
	_delay_ms(1);
	LCP&=~(1<<LCD_E);
 34a:	85 b1       	in	r24, 0x05	; 5
 34c:	8b 7f       	andi	r24, 0xFB	; 251
 34e:	85 b9       	out	0x05, r24	; 5
 350:	ef ec       	ldi	r30, 0xCF	; 207
 352:	f7 e0       	ldi	r31, 0x07	; 7
 354:	31 97       	sbiw	r30, 0x01	; 1
 356:	f1 f7       	brne	.-4      	; 0x354 <LCDinit+0x66>
 358:	00 c0       	rjmp	.+0      	; 0x35a <LCDinit+0x6c>
 35a:	00 00       	nop
	_delay_ms(1);
	//-------three-------------
	LDP=0<<LCD_D7|0<<LCD_D6|1<<LCD_D5|0<<LCD_D4; //4 bit mode
 35c:	80 e2       	ldi	r24, 0x20	; 32
 35e:	85 b9       	out	0x05, r24	; 5
	LCP|=1<<LCD_E|0<<LCD_RW|0<<LCD_RS;		
 360:	85 b1       	in	r24, 0x05	; 5
 362:	84 60       	ori	r24, 0x04	; 4
 364:	85 b9       	out	0x05, r24	; 5
 366:	8f ec       	ldi	r24, 0xCF	; 207
 368:	97 e0       	ldi	r25, 0x07	; 7
 36a:	01 97       	sbiw	r24, 0x01	; 1
 36c:	f1 f7       	brne	.-4      	; 0x36a <LCDinit+0x7c>
 36e:	00 c0       	rjmp	.+0      	; 0x370 <LCDinit+0x82>
 370:	00 00       	nop
	_delay_ms(1);
	LCP&=~(1<<LCD_E);
 372:	85 b1       	in	r24, 0x05	; 5
 374:	8b 7f       	andi	r24, 0xFB	; 251
 376:	85 b9       	out	0x05, r24	; 5
 378:	ef ec       	ldi	r30, 0xCF	; 207
 37a:	f7 e0       	ldi	r31, 0x07	; 7
 37c:	31 97       	sbiw	r30, 0x01	; 1
 37e:	f1 f7       	brne	.-4      	; 0x37c <LCDinit+0x8e>
 380:	00 c0       	rjmp	.+0      	; 0x382 <LCDinit+0x94>
 382:	00 00       	nop
	_delay_ms(1);
	//--------4 bit--dual line---------------
	LCDsendCommand(0b00101000);
 384:	88 e2       	ldi	r24, 0x28	; 40
 386:	0e 94 11 01 	call	0x222	; 0x222 <LCDsendCommand>
   //-----increment address, invisible cursor shift------
	LCDsendCommand(0b00001100);
 38a:	8c e0       	ldi	r24, 0x0C	; 12
 38c:	0e 94 11 01 	call	0x222	; 0x222 <LCDsendCommand>
		//init 8 custom chars
	uint8_t ch=0, chn=0;
 390:	60 e0       	ldi	r22, 0x00	; 0
 392:	c0 e0       	ldi	r28, 0x00	; 0
	while(ch<64)
 394:	0a c0       	rjmp	.+20     	; 0x3aa <LCDinit+0xbc>
	{
		LCDdefinechar((LcdCustomChar+ch),chn++);
 396:	d1 e0       	ldi	r29, 0x01	; 1
 398:	d6 0f       	add	r29, r22
 39a:	8c 2f       	mov	r24, r28
 39c:	90 e0       	ldi	r25, 0x00	; 0
 39e:	88 5a       	subi	r24, 0xA8	; 168
 3a0:	9e 4f       	sbci	r25, 0xFE	; 254
 3a2:	0e 94 4d 01 	call	0x29a	; 0x29a <LCDdefinechar>
		ch=ch+8;
 3a6:	c8 5f       	subi	r28, 0xF8	; 248
	LCDsendCommand(0b00001100);
		//init 8 custom chars
	uint8_t ch=0, chn=0;
	while(ch<64)
	{
		LCDdefinechar((LcdCustomChar+ch),chn++);
 3a8:	6d 2f       	mov	r22, r29
	LCDsendCommand(0b00101000);
   //-----increment address, invisible cursor shift------
	LCDsendCommand(0b00001100);
		//init 8 custom chars
	uint8_t ch=0, chn=0;
	while(ch<64)
 3aa:	c0 34       	cpi	r28, 0x40	; 64
 3ac:	a0 f3       	brcs	.-24     	; 0x396 <LCDinit+0xa8>
		LCDdefinechar((LcdCustomChar+ch),chn++);
		ch=ch+8;
	}

#endif
}			
 3ae:	df 91       	pop	r29
 3b0:	cf 91       	pop	r28
 3b2:	08 95       	ret

000003b4 <actualizar_salida>:
			return 1;
		}
	}
	Old_key=Key; //1era verificación
	return 0;
}
 3b4:	20 e1       	ldi	r18, 0x10	; 16
 3b6:	82 9f       	mul	r24, r18
 3b8:	c0 01       	movw	r24, r0
 3ba:	11 24       	eor	r1, r1
 3bc:	9b b1       	in	r25, 0x0b	; 11
 3be:	9f 70       	andi	r25, 0x0F	; 15
 3c0:	89 2b       	or	r24, r25
 3c2:	8b b9       	out	0x0b, r24	; 11
 3c4:	08 95       	ret

000003c6 <get_salida>:
 3c6:	8b b1       	in	r24, 0x0b	; 11
 3c8:	82 95       	swap	r24
 3ca:	8f 70       	andi	r24, 0x0F	; 15
 3cc:	08 95       	ret

000003ce <get_entrada>:
 3ce:	89 b1       	in	r24, 0x09	; 9
 3d0:	80 6f       	ori	r24, 0xF0	; 240
 3d2:	08 95       	ret

000003d4 <KEYPAD_scan>:
 3d4:	0f 93       	push	r16
 3d6:	1f 93       	push	r17
 3d8:	cf 93       	push	r28
 3da:	df 93       	push	r29
 3dc:	8c 01       	movw	r16, r24
 3de:	8c e7       	ldi	r24, 0x7C	; 124
 3e0:	0e 94 e0 00 	call	0x1c0	; 0x1c0 <LCDsendChar>
 3e4:	80 ef       	ldi	r24, 0xF0	; 240
 3e6:	8a b9       	out	0x0a, r24	; 10
 3e8:	8f e0       	ldi	r24, 0x0F	; 15
 3ea:	8b b9       	out	0x0b, r24	; 11
 3ec:	80 e0       	ldi	r24, 0x00	; 0
 3ee:	0e 94 da 01 	call	0x3b4	; 0x3b4 <actualizar_salida>
 3f2:	2f ef       	ldi	r18, 0xFF	; 255
 3f4:	80 e7       	ldi	r24, 0x70	; 112
 3f6:	92 e0       	ldi	r25, 0x02	; 2
 3f8:	21 50       	subi	r18, 0x01	; 1
 3fa:	80 40       	sbci	r24, 0x00	; 0
 3fc:	90 40       	sbci	r25, 0x00	; 0
 3fe:	e1 f7       	brne	.-8      	; 0x3f8 <KEYPAD_scan+0x24>
 400:	00 c0       	rjmp	.+0      	; 0x402 <__EEPROM_REGION_LENGTH__+0x2>
 402:	00 00       	nop
 404:	0e 94 e7 01 	call	0x3ce	; 0x3ce <get_entrada>
 408:	8f 3f       	cpi	r24, 0xFF	; 255
 40a:	09 f4       	brne	.+2      	; 0x40e <__EEPROM_REGION_LENGTH__+0xe>
 40c:	84 c0       	rjmp	.+264    	; 0x516 <__EEPROM_REGION_LENGTH__+0x116>
 40e:	ef ef       	ldi	r30, 0xFF	; 255
 410:	f0 e7       	ldi	r31, 0x70	; 112
 412:	22 e0       	ldi	r18, 0x02	; 2
 414:	e1 50       	subi	r30, 0x01	; 1
 416:	f0 40       	sbci	r31, 0x00	; 0
 418:	20 40       	sbci	r18, 0x00	; 0
 41a:	e1 f7       	brne	.-8      	; 0x414 <__EEPROM_REGION_LENGTH__+0x14>
 41c:	00 c0       	rjmp	.+0      	; 0x41e <__EEPROM_REGION_LENGTH__+0x1e>
 41e:	00 00       	nop
 420:	8e e0       	ldi	r24, 0x0E	; 14
 422:	0e 94 da 01 	call	0x3b4	; 0x3b4 <actualizar_salida>
 426:	8f ef       	ldi	r24, 0xFF	; 255
 428:	90 e7       	ldi	r25, 0x70	; 112
 42a:	e2 e0       	ldi	r30, 0x02	; 2
 42c:	81 50       	subi	r24, 0x01	; 1
 42e:	90 40       	sbci	r25, 0x00	; 0
 430:	e0 40       	sbci	r30, 0x00	; 0
 432:	e1 f7       	brne	.-8      	; 0x42c <__EEPROM_REGION_LENGTH__+0x2c>
 434:	00 c0       	rjmp	.+0      	; 0x436 <__EEPROM_REGION_LENGTH__+0x36>
 436:	00 00       	nop
 438:	0e 94 e7 01 	call	0x3ce	; 0x3ce <get_entrada>
 43c:	0e 94 e3 01 	call	0x3c6	; 0x3c6 <get_salida>
 440:	f0 e1       	ldi	r31, 0x10	; 16
 442:	8f 9f       	mul	r24, r31
 444:	e0 01       	movw	r28, r0
 446:	11 24       	eor	r1, r1
 448:	0e 94 e7 01 	call	0x3ce	; 0x3ce <get_entrada>
 44c:	8f 70       	andi	r24, 0x0F	; 15
 44e:	ec 2f       	mov	r30, r28
 450:	e8 2b       	or	r30, r24
 452:	8e 2f       	mov	r24, r30
 454:	90 e0       	ldi	r25, 0x00	; 0
 456:	fc 01       	movw	r30, r24
 458:	e7 57       	subi	r30, 0x77	; 119
 45a:	f1 09       	sbc	r31, r1
 45c:	e8 37       	cpi	r30, 0x78	; 120
 45e:	f1 05       	cpc	r31, r1
 460:	08 f0       	brcs	.+2      	; 0x464 <__EEPROM_REGION_LENGTH__+0x64>
 462:	54 c0       	rjmp	.+168    	; 0x50c <__EEPROM_REGION_LENGTH__+0x10c>
 464:	ec 5c       	subi	r30, 0xCC	; 204
 466:	ff 4f       	sbci	r31, 0xFF	; 255
 468:	0c 94 b0 02 	jmp	0x560	; 0x560 <__tablejump2__>
 46c:	87 e3       	ldi	r24, 0x37	; 55
 46e:	f8 01       	movw	r30, r16
 470:	80 83       	st	Z, r24
 472:	81 e0       	ldi	r24, 0x01	; 1
 474:	51 c0       	rjmp	.+162    	; 0x518 <__EEPROM_REGION_LENGTH__+0x118>
 476:	88 e3       	ldi	r24, 0x38	; 56
 478:	f8 01       	movw	r30, r16
 47a:	80 83       	st	Z, r24
 47c:	81 e0       	ldi	r24, 0x01	; 1
 47e:	4c c0       	rjmp	.+152    	; 0x518 <__EEPROM_REGION_LENGTH__+0x118>
 480:	89 e3       	ldi	r24, 0x39	; 57
 482:	f8 01       	movw	r30, r16
 484:	80 83       	st	Z, r24
 486:	81 e0       	ldi	r24, 0x01	; 1
 488:	47 c0       	rjmp	.+142    	; 0x518 <__EEPROM_REGION_LENGTH__+0x118>
 48a:	8f e2       	ldi	r24, 0x2F	; 47
 48c:	f8 01       	movw	r30, r16
 48e:	80 83       	st	Z, r24
 490:	81 e0       	ldi	r24, 0x01	; 1
 492:	42 c0       	rjmp	.+132    	; 0x518 <__EEPROM_REGION_LENGTH__+0x118>
 494:	84 e3       	ldi	r24, 0x34	; 52
 496:	f8 01       	movw	r30, r16
 498:	80 83       	st	Z, r24
 49a:	81 e0       	ldi	r24, 0x01	; 1
 49c:	3d c0       	rjmp	.+122    	; 0x518 <__EEPROM_REGION_LENGTH__+0x118>
 49e:	85 e3       	ldi	r24, 0x35	; 53
 4a0:	f8 01       	movw	r30, r16
 4a2:	80 83       	st	Z, r24
 4a4:	81 e0       	ldi	r24, 0x01	; 1
 4a6:	38 c0       	rjmp	.+112    	; 0x518 <__EEPROM_REGION_LENGTH__+0x118>
 4a8:	86 e3       	ldi	r24, 0x36	; 54
 4aa:	f8 01       	movw	r30, r16
 4ac:	80 83       	st	Z, r24
 4ae:	81 e0       	ldi	r24, 0x01	; 1
 4b0:	33 c0       	rjmp	.+102    	; 0x518 <__EEPROM_REGION_LENGTH__+0x118>
 4b2:	8a e2       	ldi	r24, 0x2A	; 42
 4b4:	f8 01       	movw	r30, r16
 4b6:	80 83       	st	Z, r24
 4b8:	81 e0       	ldi	r24, 0x01	; 1
 4ba:	2e c0       	rjmp	.+92     	; 0x518 <__EEPROM_REGION_LENGTH__+0x118>
 4bc:	81 e3       	ldi	r24, 0x31	; 49
 4be:	f8 01       	movw	r30, r16
 4c0:	80 83       	st	Z, r24
 4c2:	81 e0       	ldi	r24, 0x01	; 1
 4c4:	29 c0       	rjmp	.+82     	; 0x518 <__EEPROM_REGION_LENGTH__+0x118>
 4c6:	82 e3       	ldi	r24, 0x32	; 50
 4c8:	f8 01       	movw	r30, r16
 4ca:	80 83       	st	Z, r24
 4cc:	81 e0       	ldi	r24, 0x01	; 1
 4ce:	24 c0       	rjmp	.+72     	; 0x518 <__EEPROM_REGION_LENGTH__+0x118>
 4d0:	83 e3       	ldi	r24, 0x33	; 51
 4d2:	f8 01       	movw	r30, r16
 4d4:	80 83       	st	Z, r24
 4d6:	81 e0       	ldi	r24, 0x01	; 1
 4d8:	1f c0       	rjmp	.+62     	; 0x518 <__EEPROM_REGION_LENGTH__+0x118>
 4da:	8d e2       	ldi	r24, 0x2D	; 45
 4dc:	f8 01       	movw	r30, r16
 4de:	80 83       	st	Z, r24
 4e0:	81 e0       	ldi	r24, 0x01	; 1
 4e2:	1a c0       	rjmp	.+52     	; 0x518 <__EEPROM_REGION_LENGTH__+0x118>
 4e4:	80 e7       	ldi	r24, 0x70	; 112
 4e6:	f8 01       	movw	r30, r16
 4e8:	80 83       	st	Z, r24
 4ea:	81 e0       	ldi	r24, 0x01	; 1
 4ec:	15 c0       	rjmp	.+42     	; 0x518 <__EEPROM_REGION_LENGTH__+0x118>
 4ee:	80 e3       	ldi	r24, 0x30	; 48
 4f0:	f8 01       	movw	r30, r16
 4f2:	80 83       	st	Z, r24
 4f4:	81 e0       	ldi	r24, 0x01	; 1
 4f6:	10 c0       	rjmp	.+32     	; 0x518 <__EEPROM_REGION_LENGTH__+0x118>
 4f8:	8d e3       	ldi	r24, 0x3D	; 61
 4fa:	f8 01       	movw	r30, r16
 4fc:	80 83       	st	Z, r24
 4fe:	81 e0       	ldi	r24, 0x01	; 1
 500:	0b c0       	rjmp	.+22     	; 0x518 <__EEPROM_REGION_LENGTH__+0x118>
 502:	8b e2       	ldi	r24, 0x2B	; 43
 504:	f8 01       	movw	r30, r16
 506:	80 83       	st	Z, r24
 508:	81 e0       	ldi	r24, 0x01	; 1
 50a:	06 c0       	rjmp	.+12     	; 0x518 <__EEPROM_REGION_LENGTH__+0x118>
 50c:	84 e4       	ldi	r24, 0x44	; 68
 50e:	f8 01       	movw	r30, r16
 510:	80 83       	st	Z, r24
 512:	81 e0       	ldi	r24, 0x01	; 1
 514:	01 c0       	rjmp	.+2      	; 0x518 <__EEPROM_REGION_LENGTH__+0x118>
 516:	80 e0       	ldi	r24, 0x00	; 0
 518:	df 91       	pop	r29
 51a:	cf 91       	pop	r28
 51c:	1f 91       	pop	r17
 51e:	0f 91       	pop	r16
 520:	08 95       	ret

00000522 <main>:


int main(void)
{
 522:	cf 93       	push	r28
 524:	df 93       	push	r29
 526:	1f 92       	push	r1
 528:	cd b7       	in	r28, 0x3d	; 61
 52a:	de b7       	in	r29, 0x3e	; 62
	LCDinit();
 52c:	0e 94 77 01 	call	0x2ee	; 0x2ee <LCDinit>
	LCDGotoXY(0,0);
 530:	60 e0       	ldi	r22, 0x00	; 0
 532:	80 e0       	ldi	r24, 0x00	; 0
 534:	0e 94 3e 01 	call	0x27c	; 0x27c <LCDGotoXY>
	while (1)
	{	
		uint8_t tecla=0;
 538:	19 82       	std	Y+1, r1	; 0x01
		//programa de testeo del KEYPAD_scan
		if(KEYPAD_scan(&tecla)){
 53a:	ce 01       	movw	r24, r28
 53c:	01 96       	adiw	r24, 0x01	; 1
 53e:	0e 94 ea 01 	call	0x3d4	; 0x3d4 <KEYPAD_scan>
 542:	88 23       	and	r24, r24
 544:	19 f0       	breq	.+6      	; 0x54c <main+0x2a>
					LCDsendChar(tecla);
 546:	89 81       	ldd	r24, Y+1	; 0x01
 548:	0e 94 e0 00 	call	0x1c0	; 0x1c0 <LCDsendChar>
 54c:	2f ef       	ldi	r18, 0xFF	; 255
 54e:	80 e7       	ldi	r24, 0x70	; 112
 550:	92 e0       	ldi	r25, 0x02	; 2
 552:	21 50       	subi	r18, 0x01	; 1
 554:	80 40       	sbci	r24, 0x00	; 0
 556:	90 40       	sbci	r25, 0x00	; 0
 558:	e1 f7       	brne	.-8      	; 0x552 <main+0x30>
 55a:	00 c0       	rjmp	.+0      	; 0x55c <main+0x3a>
 55c:	00 00       	nop
		}				
	    _delay_ms(100);
	}
 55e:	ec cf       	rjmp	.-40     	; 0x538 <main+0x16>

00000560 <__tablejump2__>:
 560:	ee 0f       	add	r30, r30
 562:	ff 1f       	adc	r31, r31
 564:	05 90       	lpm	r0, Z+
 566:	f4 91       	lpm	r31, Z
 568:	e0 2d       	mov	r30, r0
 56a:	09 94       	ijmp

0000056c <_exit>:
 56c:	f8 94       	cli

0000056e <__stop_program>:
 56e:	ff cf       	rjmp	.-2      	; 0x56e <__stop_program>
